#include <math.h>
#include <stdio.h>
#include <stdlib.h>
#include <string.h>
#define LEN 100
#define ASCII 100
#define MAX_N 100
#define MAX_N 100
#define L 100
#define MAX 100
#define ASC 100
#define null 0
#define Len 100
#define M 100
#define SUM 100
#define NUMBER 100
#define SIZE 100
#define N 100
#define Max 100
#define X 100
#define Y 100
#define A 100
#define MAXN 100
#define MAXSIZE 100
struct student
{
	int num;
	int score1;
	int score2;
	int sum;
	struct student *next;
};
struct student *creat(int m)
{
	int i=0;
    struct student *head,*p1,*p2;
	p1=p2=(struct student *)malloc(LEN);
    scanf("%d %d %d",&p1->num,&p1->score1,&p1->score2);
	p1->sum=(p1->score1)+(p1->score2);
    head=NULL;
	
    for(i=0;i<m-1;i++)
	
	{
		
		if(i==0) head=p1;
	    else p2->next=p1;
		p2=p1;
		p1=(struct student *)malloc(LEN);
        scanf("%d %d %d",&p1->num,&p1->score1,&p1->score2);
	    p1->sum=(p1->score1)+(p1->score2);
	}
	p2->next=p1;
	p1->next=NULL;
	return(head);
}
void print(struct student *head)
{
    struct student *p=head,*q=head;
	int a=0,b=0,c=0;
	if(head!=NULL)
		
	{do
		{
			if(a<p->sum)
			{a=p->sum;q=p;}
			p=p->next;
		}while(p!=NULL);
		printf("%d %d\n",q->num,q->sum);
        q->sum=0;
        p=head;q=head;
	 do
	  {if(b<p->sum)
			{b=p->sum;q=p;}
			p=p->next;
	  }while(p!=NULL);
		printf("%d %d\n",q->num,q->sum);
        q->sum=0;
        p=head;q=head;
		do
		{if(c<p->sum)
			{c=p->sum;q=p;}
			p=p->next;
	  }while(p!=NULL);
	printf("%d %d",q->num,q->sum);
	}
}
void main()
{
	int m;
	scanf("%d",&m);
	struct student *head,stu;
	head=creat(m);
	print(head);
}