; ModuleID = '14/1350.c'
source_filename = "14/1350.c"
target datalayout = "e-m:e-p270:32:32-p271:32:32-p272:64:64-i64:64-f80:128-n8:16:32:64-S128"
target triple = "x86_64-pc-linux-gnu"

%struct.student = type { i32, i32, i32, i32, %struct.student* }

@.str = private unnamed_addr constant [9 x i8] c"%d %d %d\00", align 1
@.str.1 = private unnamed_addr constant [7 x i8] c"%d %d\0A\00", align 1
@.str.2 = private unnamed_addr constant [6 x i8] c"%d %d\00", align 1
@.str.3 = private unnamed_addr constant [3 x i8] c"%d\00", align 1

; Function Attrs: noinline nounwind uwtable
define dso_local %struct.student* @creat(i32 %0) #0 {
  %2 = alloca i32, align 4
  %3 = alloca i32, align 4
  %4 = alloca %struct.student*, align 8
  %5 = alloca %struct.student*, align 8
  %6 = alloca %struct.student*, align 8
  store i32 %0, i32* %2, align 4
  store i32 0, i32* %3, align 4
  %7 = call noalias i8* @malloc(i64 100) #3
  %8 = bitcast i8* %7 to %struct.student*
  store %struct.student* %8, %struct.student** %6, align 8
  store %struct.student* %8, %struct.student** %5, align 8
  %9 = load %struct.student*, %struct.student** %5, align 8
  %10 = getelementptr inbounds %struct.student, %struct.student* %9, i32 0, i32 0
  %11 = load %struct.student*, %struct.student** %5, align 8
  %12 = getelementptr inbounds %struct.student, %struct.student* %11, i32 0, i32 1
  %13 = load %struct.student*, %struct.student** %5, align 8
  %14 = getelementptr inbounds %struct.student, %struct.student* %13, i32 0, i32 2
  %15 = call i32 (i8*, ...) @__isoc99_scanf(i8* getelementptr inbounds ([9 x i8], [9 x i8]* @.str, i64 0, i64 0), i32* %10, i32* %12, i32* %14)
  %16 = load %struct.student*, %struct.student** %5, align 8
  %17 = getelementptr inbounds %struct.student, %struct.student* %16, i32 0, i32 1
  %18 = load i32, i32* %17, align 4
  %19 = load %struct.student*, %struct.student** %5, align 8
  %20 = getelementptr inbounds %struct.student, %struct.student* %19, i32 0, i32 2
  %21 = load i32, i32* %20, align 8
  %22 = add nsw i32 %18, %21
  %23 = load %struct.student*, %struct.student** %5, align 8
  %24 = getelementptr inbounds %struct.student, %struct.student* %23, i32 0, i32 3
  store i32 %22, i32* %24, align 4
  store %struct.student* null, %struct.student** %4, align 8
  store i32 0, i32* %3, align 4
  br label %25

25:                                               ; preds = %59, %1
  %26 = load i32, i32* %3, align 4
  %27 = load i32, i32* %2, align 4
  %28 = sub nsw i32 %27, 1
  %29 = icmp slt i32 %26, %28
  br i1 %29, label %30, label %62

30:                                               ; preds = %25
  %31 = load i32, i32* %3, align 4
  %32 = icmp eq i32 %31, 0
  br i1 %32, label %33, label %35

33:                                               ; preds = %30
  %34 = load %struct.student*, %struct.student** %5, align 8
  store %struct.student* %34, %struct.student** %4, align 8
  br label %39

35:                                               ; preds = %30
  %36 = load %struct.student*, %struct.student** %5, align 8
  %37 = load %struct.student*, %struct.student** %6, align 8
  %38 = getelementptr inbounds %struct.student, %struct.student* %37, i32 0, i32 4
  store %struct.student* %36, %struct.student** %38, align 8
  br label %39

39:                                               ; preds = %35, %33
  %40 = load %struct.student*, %struct.student** %5, align 8
  store %struct.student* %40, %struct.student** %6, align 8
  %41 = call noalias i8* @malloc(i64 100) #3
  %42 = bitcast i8* %41 to %struct.student*
  store %struct.student* %42, %struct.student** %5, align 8
  %43 = load %struct.student*, %struct.student** %5, align 8
  %44 = getelementptr inbounds %struct.student, %struct.student* %43, i32 0, i32 0
  %45 = load %struct.student*, %struct.student** %5, align 8
  %46 = getelementptr inbounds %struct.student, %struct.student* %45, i32 0, i32 1
  %47 = load %struct.student*, %struct.student** %5, align 8
  %48 = getelementptr inbounds %struct.student, %struct.student* %47, i32 0, i32 2
  %49 = call i32 (i8*, ...) @__isoc99_scanf(i8* getelementptr inbounds ([9 x i8], [9 x i8]* @.str, i64 0, i64 0), i32* %44, i32* %46, i32* %48)
  %50 = load %struct.student*, %struct.student** %5, align 8
  %51 = getelementptr inbounds %struct.student, %struct.student* %50, i32 0, i32 1
  %52 = load i32, i32* %51, align 4
  %53 = load %struct.student*, %struct.student** %5, align 8
  %54 = getelementptr inbounds %struct.student, %struct.student* %53, i32 0, i32 2
  %55 = load i32, i32* %54, align 8
  %56 = add nsw i32 %52, %55
  %57 = load %struct.student*, %struct.student** %5, align 8
  %58 = getelementptr inbounds %struct.student, %struct.student* %57, i32 0, i32 3
  store i32 %56, i32* %58, align 4
  br label %59

59:                                               ; preds = %39
  %60 = load i32, i32* %3, align 4
  %61 = add nsw i32 %60, 1
  store i32 %61, i32* %3, align 4
  br label %25

62:                                               ; preds = %25
  %63 = load %struct.student*, %struct.student** %5, align 8
  %64 = load %struct.student*, %struct.student** %6, align 8
  %65 = getelementptr inbounds %struct.student, %struct.student* %64, i32 0, i32 4
  store %struct.student* %63, %struct.student** %65, align 8
  %66 = load %struct.student*, %struct.student** %5, align 8
  %67 = getelementptr inbounds %struct.student, %struct.student* %66, i32 0, i32 4
  store %struct.student* null, %struct.student** %67, align 8
  %68 = load %struct.student*, %struct.student** %4, align 8
  ret %struct.student* %68
}

; Function Attrs: nounwind
declare dso_local noalias i8* @malloc(i64) #1

declare dso_local i32 @__isoc99_scanf(i8*, ...) #2

; Function Attrs: noinline nounwind uwtable
define dso_local void @print(%struct.student* %0) #0 {
  %2 = alloca %struct.student*, align 8
  %3 = alloca %struct.student*, align 8
  %4 = alloca %struct.student*, align 8
  %5 = alloca i32, align 4
  %6 = alloca i32, align 4
  %7 = alloca i32, align 4
  store %struct.student* %0, %struct.student** %2, align 8
  %8 = load %struct.student*, %struct.student** %2, align 8
  store %struct.student* %8, %struct.student** %3, align 8
  %9 = load %struct.student*, %struct.student** %2, align 8
  store %struct.student* %9, %struct.student** %4, align 8
  store i32 0, i32* %5, align 4
  store i32 0, i32* %6, align 4
  store i32 0, i32* %7, align 4
  %10 = load %struct.student*, %struct.student** %2, align 8
  %11 = icmp ne %struct.student* %10, null
  br i1 %11, label %12, label %99

12:                                               ; preds = %1
  br label %13

13:                                               ; preds = %28, %12
  %14 = load i32, i32* %5, align 4
  %15 = load %struct.student*, %struct.student** %3, align 8
  %16 = getelementptr inbounds %struct.student, %struct.student* %15, i32 0, i32 3
  %17 = load i32, i32* %16, align 4
  %18 = icmp slt i32 %14, %17
  br i1 %18, label %19, label %24

19:                                               ; preds = %13
  %20 = load %struct.student*, %struct.student** %3, align 8
  %21 = getelementptr inbounds %struct.student, %struct.student* %20, i32 0, i32 3
  %22 = load i32, i32* %21, align 4
  store i32 %22, i32* %5, align 4
  %23 = load %struct.student*, %struct.student** %3, align 8
  store %struct.student* %23, %struct.student** %4, align 8
  br label %24

24:                                               ; preds = %19, %13
  %25 = load %struct.student*, %struct.student** %3, align 8
  %26 = getelementptr inbounds %struct.student, %struct.student* %25, i32 0, i32 4
  %27 = load %struct.student*, %struct.student** %26, align 8
  store %struct.student* %27, %struct.student** %3, align 8
  br label %28

28:                                               ; preds = %24
  %29 = load %struct.student*, %struct.student** %3, align 8
  %30 = icmp ne %struct.student* %29, null
  br i1 %30, label %13, label %31

31:                                               ; preds = %28
  %32 = load %struct.student*, %struct.student** %4, align 8
  %33 = getelementptr inbounds %struct.student, %struct.student* %32, i32 0, i32 0
  %34 = load i32, i32* %33, align 8
  %35 = load %struct.student*, %struct.student** %4, align 8
  %36 = getelementptr inbounds %struct.student, %struct.student* %35, i32 0, i32 3
  %37 = load i32, i32* %36, align 4
  %38 = call i32 (i8*, ...) @printf(i8* getelementptr inbounds ([7 x i8], [7 x i8]* @.str.1, i64 0, i64 0), i32 %34, i32 %37)
  %39 = load %struct.student*, %struct.student** %4, align 8
  %40 = getelementptr inbounds %struct.student, %struct.student* %39, i32 0, i32 3
  store i32 0, i32* %40, align 4
  %41 = load %struct.student*, %struct.student** %2, align 8
  store %struct.student* %41, %struct.student** %3, align 8
  %42 = load %struct.student*, %struct.student** %2, align 8
  store %struct.student* %42, %struct.student** %4, align 8
  br label %43

43:                                               ; preds = %58, %31
  %44 = load i32, i32* %6, align 4
  %45 = load %struct.student*, %struct.student** %3, align 8
  %46 = getelementptr inbounds %struct.student, %struct.student* %45, i32 0, i32 3
  %47 = load i32, i32* %46, align 4
  %48 = icmp slt i32 %44, %47
  br i1 %48, label %49, label %54

49:                                               ; preds = %43
  %50 = load %struct.student*, %struct.student** %3, align 8
  %51 = getelementptr inbounds %struct.student, %struct.student* %50, i32 0, i32 3
  %52 = load i32, i32* %51, align 4
  store i32 %52, i32* %6, align 4
  %53 = load %struct.student*, %struct.student** %3, align 8
  store %struct.student* %53, %struct.student** %4, align 8
  br label %54

54:                                               ; preds = %49, %43
  %55 = load %struct.student*, %struct.student** %3, align 8
  %56 = getelementptr inbounds %struct.student, %struct.student* %55, i32 0, i32 4
  %57 = load %struct.student*, %struct.student** %56, align 8
  store %struct.student* %57, %struct.student** %3, align 8
  br label %58

58:                                               ; preds = %54
  %59 = load %struct.student*, %struct.student** %3, align 8
  %60 = icmp ne %struct.student* %59, null
  br i1 %60, label %43, label %61

61:                                               ; preds = %58
  %62 = load %struct.student*, %struct.student** %4, align 8
  %63 = getelementptr inbounds %struct.student, %struct.student* %62, i32 0, i32 0
  %64 = load i32, i32* %63, align 8
  %65 = load %struct.student*, %struct.student** %4, align 8
  %66 = getelementptr inbounds %struct.student, %struct.student* %65, i32 0, i32 3
  %67 = load i32, i32* %66, align 4
  %68 = call i32 (i8*, ...) @printf(i8* getelementptr inbounds ([7 x i8], [7 x i8]* @.str.1, i64 0, i64 0), i32 %64, i32 %67)
  %69 = load %struct.student*, %struct.student** %4, align 8
  %70 = getelementptr inbounds %struct.student, %struct.student* %69, i32 0, i32 3
  store i32 0, i32* %70, align 4
  %71 = load %struct.student*, %struct.student** %2, align 8
  store %struct.student* %71, %struct.student** %3, align 8
  %72 = load %struct.student*, %struct.student** %2, align 8
  store %struct.student* %72, %struct.student** %4, align 8
  br label %73

73:                                               ; preds = %88, %61
  %74 = load i32, i32* %7, align 4
  %75 = load %struct.student*, %struct.student** %3, align 8
  %76 = getelementptr inbounds %struct.student, %struct.student* %75, i32 0, i32 3
  %77 = load i32, i32* %76, align 4
  %78 = icmp slt i32 %74, %77
  br i1 %78, label %79, label %84

79:                                               ; preds = %73
  %80 = load %struct.student*, %struct.student** %3, align 8
  %81 = getelementptr inbounds %struct.student, %struct.student* %80, i32 0, i32 3
  %82 = load i32, i32* %81, align 4
  store i32 %82, i32* %7, align 4
  %83 = load %struct.student*, %struct.student** %3, align 8
  store %struct.student* %83, %struct.student** %4, align 8
  br label %84

84:                                               ; preds = %79, %73
  %85 = load %struct.student*, %struct.student** %3, align 8
  %86 = getelementptr inbounds %struct.student, %struct.student* %85, i32 0, i32 4
  %87 = load %struct.student*, %struct.student** %86, align 8
  store %struct.student* %87, %struct.student** %3, align 8
  br label %88

88:                                               ; preds = %84
  %89 = load %struct.student*, %struct.student** %3, align 8
  %90 = icmp ne %struct.student* %89, null
  br i1 %90, label %73, label %91

91:                                               ; preds = %88
  %92 = load %struct.student*, %struct.student** %4, align 8
  %93 = getelementptr inbounds %struct.student, %struct.student* %92, i32 0, i32 0
  %94 = load i32, i32* %93, align 8
  %95 = load %struct.student*, %struct.student** %4, align 8
  %96 = getelementptr inbounds %struct.student, %struct.student* %95, i32 0, i32 3
  %97 = load i32, i32* %96, align 4
  %98 = call i32 (i8*, ...) @printf(i8* getelementptr inbounds ([6 x i8], [6 x i8]* @.str.2, i64 0, i64 0), i32 %94, i32 %97)
  br label %99

99:                                               ; preds = %91, %1
  ret void
}

declare dso_local i32 @printf(i8*, ...) #2

; Function Attrs: noinline nounwind uwtable
define dso_local void @main() #0 {
  %1 = alloca i32, align 4
  %2 = alloca %struct.student*, align 8
  %3 = alloca %struct.student, align 8
  %4 = call i32 (i8*, ...) @__isoc99_scanf(i8* getelementptr inbounds ([3 x i8], [3 x i8]* @.str.3, i64 0, i64 0), i32* %1)
  %5 = load i32, i32* %1, align 4
  %6 = call %struct.student* @creat(i32 %5)
  store %struct.student* %6, %struct.student** %2, align 8
  %7 = load %struct.student*, %struct.student** %2, align 8
  call void @print(%struct.student* %7)
  ret void
}


!llvm.module.flags = !{!0}
!llvm.ident = !{!1}

!0 = !{i32 1, !"wchar_size", i32 4}
!1 = !{!"clang version 10.0.0-4ubuntu1 "}
